; Function Attrs: mustprogress uwtable
define internal noundef ptr @"_ZZN4pkpy15__init_builtinsEPNS_2VMEEN4$_668__invokeES1_PNS_8PyObjectE"(ptr noundef %0, ptr noundef %1) #4 align 2 {
  %3 = alloca i64, align 8
  %4 = ptrtoint ptr %1 to i64
  %5 = and i64 %4, 3
  %6 = icmp eq i64 %5, 2
  br i1 %6, label %7, label %9

7:                                                ; preds = %2
  %8 = ashr i64 %4, 2
  br label %_ZN4pkpy8_py_castIlEET_PNS_2VMEPNS_8PyObjectE.exit.i

9:                                                ; preds = %2
  %10 = getelementptr inbounds i8, ptr %1, i64 24
  %11 = load i64, ptr %10, align 8
  br label %_ZN4pkpy8_py_castIlEET_PNS_2VMEPNS_8PyObjectE.exit.i

_ZN4pkpy8_py_castIlEET_PNS_2VMEPNS_8PyObjectE.exit.i: ; preds = %9, %7
  %.0.i.i.i = phi i64 [ %8, %7 ], [ %11, %9 ]
  %12 = xor i64 %.0.i.i.i, -1
  call void @llvm.lifetime.start.p0(i64 8, ptr nonnull %3)
  store i64 %12, ptr %3, align 8
  %or.cond.i.i = icmp ugt i64 %.0.i.i.i, -1152921504606846977
  br i1 %or.cond.i.i, label %13, label %17

13:                                               ; preds = %_ZN4pkpy8_py_castIlEET_PNS_2VMEPNS_8PyObjectE.exit.i
  %14 = shl nuw nsw i64 %12, 2
  %15 = or disjoint i64 %14, 2
  %16 = inttoptr i64 %15 to ptr
  br label %"_ZZN4pkpy15__init_builtinsEPNS_2VMEENK4$_66clES1_PNS_8PyObjectE.exit"

17:                                               ; preds = %_ZN4pkpy8_py_castIlEET_PNS_2VMEPNS_8PyObjectE.exit.i
  %18 = getelementptr inbounds i8, ptr %0, i64 16
  %19 = call noundef ptr @_ZN4pkpy11ManagedHeap5gcnewIlJRlEEEPNS_8PyObjectENS_4TypeEDpOT0_(ptr noundef nonnull align 8 dereferenceable(84) %18, i16 2, ptr noundef nonnull align 8 dereferenceable(8) %3)
  br label %"_ZZN4pkpy15__init_builtinsEPNS_2VMEENK4$_66clES1_PNS_8PyObjectE.exit"

"_ZZN4pkpy15__init_builtinsEPNS_2VMEENK4$_66clES1_PNS_8PyObjectE.exit": ; preds = %13, %17
  %.0.i.i = phi ptr [ %16, %13 ], [ %19, %17 ]
  call void @llvm.lifetime.end.p0(i64 8, ptr nonnull %3)
  ret ptr %.0.i.i
}